target datalayout = "e-m:e-p270:32:32-p271:32:32-p272:64:64-i64:64-i128:128-f80:128-n8:16:32:64-S128"
target triple = "x86_64-pc-linux-gnu"

@.str.9 = private unnamed_addr constant [8 x i8] c"default\00", align 1
@.str.10 = private unnamed_addr constant [9 x i8] c"verbatim\00", align 1
@.str.11 = private unnamed_addr constant [11 x i8] c"whitespace\00", align 1
@.str.12 = private unnamed_addr constant [6 x i8] c"strip\00", align 1
@.str.13 = private unnamed_addr constant [9 x i8] c"scissors\00", align 1
@.str.14 = private unnamed_addr constant [24 x i8] c"Invalid cleanup mode %s\00", align 1

; Function Attrs: nounwind uwtable
define dso_local i32 @get_cleanup_mode(ptr noundef %0, i32 noundef %1) #0 {
  %3 = alloca i32, align 4
  %4 = alloca ptr, align 8
  %5 = alloca i32, align 4
  store ptr %0, ptr %4, align 8, !tbaa !4
  store i32 %1, ptr %5, align 4, !tbaa !29
  %6 = load ptr, ptr %4, align 8, !tbaa !4
  %7 = icmp ne ptr %6, null
  br i1 %7, label %8, label %12

8:                                                ; preds = %2
  %9 = load ptr, ptr %4, align 8, !tbaa !4
  %10 = call i32 @strcmp(ptr noundef %9, ptr noundef @.str.9) #12
  %11 = icmp ne i32 %10, 0
  br i1 %11, label %16, label %12

12:                                               ; preds = %8, %2
  %13 = load i32, ptr %5, align 4, !tbaa !29
  %14 = icmp ne i32 %13, 0
  %15 = select i1 %14, i32 3, i32 0
  store i32 %15, ptr %3, align 4
  br label %42

16:                                               ; preds = %8
  %17 = load ptr, ptr %4, align 8, !tbaa !4
  %18 = call i32 @strcmp(ptr noundef %17, ptr noundef @.str.10) #12
  %19 = icmp ne i32 %18, 0
  br i1 %19, label %21, label %20

20:                                               ; preds = %16
  store i32 1, ptr %3, align 4
  br label %42

21:                                               ; preds = %16
  %22 = load ptr, ptr %4, align 8, !tbaa !4
  %23 = call i32 @strcmp(ptr noundef %22, ptr noundef @.str.11) #12
  %24 = icmp ne i32 %23, 0
  br i1 %24, label %26, label %25

25:                                               ; preds = %21
  store i32 0, ptr %3, align 4
  br label %42

26:                                               ; preds = %21
  %27 = load ptr, ptr %4, align 8, !tbaa !4
  %28 = call i32 @strcmp(ptr noundef %27, ptr noundef @.str.12) #12
  %29 = icmp ne i32 %28, 0
  br i1 %29, label %31, label %30

30:                                               ; preds = %26
  store i32 3, ptr %3, align 4
  br label %42

31:                                               ; preds = %26
  %32 = load ptr, ptr %4, align 8, !tbaa !4
  %33 = call i32 @strcmp(ptr noundef %32, ptr noundef @.str.13) #12
  %34 = icmp ne i32 %33, 0
  br i1 %34, label %39, label %35

35:                                               ; preds = %31
  %36 = load i32, ptr %5, align 4, !tbaa !29
  %37 = icmp ne i32 %36, 0
  %38 = select i1 %37, i32 2, i32 0
  store i32 %38, ptr %3, align 4
  br label %42

39:                                               ; preds = %31
  %40 = call ptr @_(ptr noundef @.str.14)
  %41 = load ptr, ptr %4, align 8, !tbaa !4
  call void (ptr, ...) @die(ptr noundef %40, ptr noundef %41) #13
  unreachable

42:                                               ; preds = %35, %30, %25, %20, %12
  %43 = load i32, ptr %3, align 4
  ret i32 %43
}