; Function Attrs: nounwind uwtable
define dso_local range(i32 0, 4) i32 @get_cleanup_mode(ptr noundef %0, i32 noundef %1) local_unnamed_addr #0 {
  %.not = icmp eq ptr %0, null
  br i1 %.not, label %5, label %3

3:                                                ; preds = %2
  %4 = tail call i32 @strcmp(ptr noundef nonnull dereferenceable(1) %0, ptr noundef nonnull dereferenceable(8) @.str.9) #21
  %.not10 = icmp eq i32 %4, 0
  br i1 %.not10, label %5, label %7

5:                                                ; preds = %3, %2
  %.not11 = icmp eq i32 %1, 0
  %6 = select i1 %.not11, i32 0, i32 3
  br label %19

7:                                                ; preds = %3
  %8 = tail call i32 @strcmp(ptr noundef nonnull dereferenceable(1) %0, ptr noundef nonnull dereferenceable(9) @.str.10) #21
  %.not12 = icmp eq i32 %8, 0
  br i1 %.not12, label %19, label %9

9:                                                ; preds = %7
  %10 = tail call i32 @strcmp(ptr noundef nonnull dereferenceable(1) %0, ptr noundef nonnull dereferenceable(11) @.str.11) #21
  %.not13 = icmp eq i32 %10, 0
  br i1 %.not13, label %19, label %11

11:                                               ; preds = %9
  %12 = tail call i32 @strcmp(ptr noundef nonnull dereferenceable(1) %0, ptr noundef nonnull dereferenceable(6) @.str.12) #21
  %.not14 = icmp eq i32 %12, 0
  br i1 %.not14, label %19, label %13

13:                                               ; preds = %11
  %14 = tail call i32 @strcmp(ptr noundef nonnull dereferenceable(1) %0, ptr noundef nonnull dereferenceable(9) @.str.13) #21
  %.not15 = icmp eq i32 %14, 0
  br i1 %.not15, label %15, label %17

15:                                               ; preds = %13
  %.not16 = icmp eq i32 %1, 0
  %16 = select i1 %.not16, i32 0, i32 2
  br label %19

17:                                               ; preds = %13
  %18 = tail call fastcc ptr @_(ptr noundef nonnull @.str.14)
  tail call void (ptr, ...) @die(ptr noundef %18, ptr noundef nonnull %0) #22
  unreachable

19:                                               ; preds = %11, %9, %7, %15, %5
  %.0 = phi i32 [ %16, %15 ], [ %6, %5 ], [ 1, %7 ], [ 0, %9 ], [ 3, %11 ]
  ret i32 %.0
}